; Function Attrs: mustprogress uwtable
define void @_ZN32pxrInternal_v0_24__pxrReserved__17UsdSkelAnimMapperC2Em(ptr noundef nonnull align 8 dereferenceable(60) initializes((0, 16)) %0, i64 noundef %1) unnamed_addr #0 align 2 {
  store i64 %1, ptr %0, align 8
  %3 = getelementptr inbounds nuw i8, ptr %0, i64 8
  store i64 0, ptr %3, align 8
  %4 = getelementptr inbounds nuw i8, ptr %0, i64 16
  tail call void @_ZN32pxrInternal_v0_24__pxrReserved__7VtArrayIiEC1Ev(ptr noundef nonnull align 8 dereferenceable(40) %4)
  %5 = getelementptr inbounds nuw i8, ptr %0, i64 56
  store i32 14, ptr %5, align 8
  ret void
}